target datalayout = "e-m:e-p270:32:32-p271:32:32-p272:64:64-i64:64-i128:128-f80:128-n8:16:32:64-S128"
target triple = "x86_64-pc-linux-gnu"

%struct.AVFormatContext = type { ptr, ptr, ptr, ptr, ptr, i32, i32, ptr, i32, ptr, i32, ptr, ptr, i64, i64, i64, i32, i32, i32, i64, i64, ptr, i32, i32, ptr, i32, i32, i32, i32, ptr, i64, i32, i32, %struct.AVIOInterruptCB, i32, i32, i32, i32, i64, i32, i32, i32, i32, i32, i32, i32, i32, i32, i32, i32, i32, i64, i32, i32, i32, i32, i32, ptr, ptr, ptr, ptr, i32, ptr, ptr, ptr, ptr, i32, ptr, ptr, i64, ptr, ptr, ptr, i64 }
%struct.AVIOInterruptCB = type { ptr, ptr }
%struct.VmdDemuxContext = type { i32, i32, i32, i32, ptr, i32, i32, i32, i64, i32, [816 x i8] }
%struct.AVPacket = type { ptr, i64, i64, ptr, i32, i32, i32, ptr, i32, i64, i64, ptr, ptr, %struct.AVRational }
%struct.AVRational = type { i32, i32 }
%struct.vmd_frame = type { i32, i32, i64, i64, [16 x i8] }

@.str.4 = private unnamed_addr constant [49 x i8] c" dispatching %s frame with %d bytes and pts %ld\0A\00", align 1
@.str.5 = private unnamed_addr constant [6 x i8] c"video\00", align 1
@.str.6 = private unnamed_addr constant [6 x i8] c"audio\00", align 1

; Function Attrs: alwaysinline nounwind uwtable
define internal i64 @avio_tell(ptr noundef %0) #4 {
  %2 = alloca ptr, align 8
  store ptr %0, ptr %2, align 8, !tbaa !36
  %3 = load ptr, ptr %2, align 8, !tbaa !36
  %4 = call i64 @avio_seek(ptr noundef %3, i64 noundef 0, i32 noundef 1)
  ret i64 %4
}

; Function Attrs: nounwind uwtable
define internal i32 @vmd_read_packet(ptr noundef %0, ptr noundef %1) #0 {
  %3 = alloca i32, align 4
  %4 = alloca ptr, align 8
  %5 = alloca ptr, align 8
  %6 = alloca ptr, align 8
  %7 = alloca ptr, align 8
  %8 = alloca i32, align 4
  %9 = alloca ptr, align 8
  %10 = alloca i32, align 4
  store ptr %0, ptr %4, align 8, !tbaa !16
  store ptr %1, ptr %5, align 8, !tbaa !80
  call void @llvm.lifetime.start.p0(i64 8, ptr %6) #5
  %11 = load ptr, ptr %4, align 8, !tbaa !16
  %12 = getelementptr inbounds nuw %struct.AVFormatContext, ptr %11, i32 0, i32 3
  %13 = load ptr, ptr %12, align 8, !tbaa !18
  store ptr %13, ptr %6, align 8, !tbaa !33
  call void @llvm.lifetime.start.p0(i64 8, ptr %7) #5
  %14 = load ptr, ptr %4, align 8, !tbaa !16
  %15 = getelementptr inbounds nuw %struct.AVFormatContext, ptr %14, i32 0, i32 4
  %16 = load ptr, ptr %15, align 8, !tbaa !35
  store ptr %16, ptr %7, align 8, !tbaa !36
  call void @llvm.lifetime.start.p0(i64 4, ptr %8) #5
  store i32 0, ptr %8, align 4, !tbaa !15
  call void @llvm.lifetime.start.p0(i64 8, ptr %9) #5
  %17 = load ptr, ptr %6, align 8, !tbaa !33
  %18 = getelementptr inbounds nuw %struct.VmdDemuxContext, ptr %17, i32 0, i32 5
  %19 = load i32, ptr %18, align 8, !tbaa !79
  %20 = load ptr, ptr %6, align 8, !tbaa !33
  %21 = getelementptr inbounds nuw %struct.VmdDemuxContext, ptr %20, i32 0, i32 2
  %22 = load i32, ptr %21, align 8, !tbaa !67
  %23 = icmp uge i32 %19, %22
  br i1 %23, label %24, label %25

24:                                               ; preds = %2
  store i32 -541478725, ptr %3, align 4
  store i32 1, ptr %10, align 4
  br label %139

25:                                               ; preds = %2
  %26 = load ptr, ptr %6, align 8, !tbaa !33
  %27 = getelementptr inbounds nuw %struct.VmdDemuxContext, ptr %26, i32 0, i32 4
  %28 = load ptr, ptr %27, align 8, !tbaa !70
  %29 = load ptr, ptr %6, align 8, !tbaa !33
  %30 = getelementptr inbounds nuw %struct.VmdDemuxContext, ptr %29, i32 0, i32 5
  %31 = load i32, ptr %30, align 8, !tbaa !79
  %32 = zext i32 %31 to i64
  %33 = getelementptr inbounds nuw %struct.vmd_frame, ptr %28, i64 %32
  store ptr %33, ptr %9, align 8, !tbaa !82
  %34 = load ptr, ptr %7, align 8, !tbaa !36
  %35 = load ptr, ptr %9, align 8, !tbaa !82
  %36 = getelementptr inbounds nuw %struct.vmd_frame, ptr %35, i32 0, i32 2
  %37 = load i64, ptr %36, align 8, !tbaa !71
  %38 = call i64 @avio_seek(ptr noundef %34, i64 noundef %37, i32 noundef 0)
  %39 = load ptr, ptr %7, align 8, !tbaa !36
  %40 = load ptr, ptr %9, align 8, !tbaa !82
  %41 = getelementptr inbounds nuw %struct.vmd_frame, ptr %40, i32 0, i32 1
  %42 = load i32, ptr %41, align 4, !tbaa !74
  %43 = call i32 @ffio_limit(ptr noundef %39, i32 noundef %42)
  %44 = load ptr, ptr %9, align 8, !tbaa !82
  %45 = getelementptr inbounds nuw %struct.vmd_frame, ptr %44, i32 0, i32 1
  %46 = load i32, ptr %45, align 4, !tbaa !74
  %47 = icmp ne i32 %43, %46
  br i1 %47, label %48, label %49

48:                                               ; preds = %25
  store i32 -5, ptr %3, align 4
  store i32 1, ptr %10, align 4
  br label %139

49:                                               ; preds = %25
  %50 = load ptr, ptr %5, align 8, !tbaa !80
  %51 = load ptr, ptr %9, align 8, !tbaa !82
  %52 = getelementptr inbounds nuw %struct.vmd_frame, ptr %51, i32 0, i32 1
  %53 = load i32, ptr %52, align 4, !tbaa !74
  %54 = add i32 %53, 16
  %55 = call i32 @av_new_packet(ptr noundef %50, i32 noundef %54)
  store i32 %55, ptr %8, align 4, !tbaa !15
  %56 = load i32, ptr %8, align 4, !tbaa !15
  %57 = icmp slt i32 %56, 0
  br i1 %57, label %58, label %60

58:                                               ; preds = %49
  %59 = load i32, ptr %8, align 4, !tbaa !15
  store i32 %59, ptr %3, align 4
  store i32 1, ptr %10, align 4
  br label %139

60:                                               ; preds = %49
  %61 = load ptr, ptr %7, align 8, !tbaa !36
  %62 = call i64 @avio_tell(ptr noundef %61)
  %63 = load ptr, ptr %5, align 8, !tbaa !80
  %64 = getelementptr inbounds nuw %struct.AVPacket, ptr %63, i32 0, i32 10
  store i64 %62, ptr %64, align 8, !tbaa !83
  %65 = load ptr, ptr %5, align 8, !tbaa !80
  %66 = getelementptr inbounds nuw %struct.AVPacket, ptr %65, i32 0, i32 3
  %67 = load ptr, ptr %66, align 8, !tbaa !84
  %68 = load ptr, ptr %9, align 8, !tbaa !82
  %69 = getelementptr inbounds nuw %struct.vmd_frame, ptr %68, i32 0, i32 4
  %70 = getelementptr inbounds [16 x i8], ptr %69, i64 0, i64 0
  call void @llvm.memcpy.p0.p0.i64(ptr align 1 %67, ptr align 8 %70, i64 16, i1 false)
  %71 = load ptr, ptr %6, align 8, !tbaa !33
  %72 = getelementptr inbounds nuw %struct.VmdDemuxContext, ptr %71, i32 0, i32 6
  %73 = load i32, ptr %72, align 4, !tbaa !40
  %74 = icmp ne i32 %73, 0
  br i1 %74, label %75, label %91

75:                                               ; preds = %60
  %76 = load ptr, ptr %9, align 8, !tbaa !82
  %77 = getelementptr inbounds nuw %struct.vmd_frame, ptr %76, i32 0, i32 4
  %78 = getelementptr inbounds [16 x i8], ptr %77, i64 0, i64 0
  %79 = load i8, ptr %78, align 8, !tbaa !14
  %80 = zext i8 %79 to i32
  %81 = icmp eq i32 %80, 2
  br i1 %81, label %82, label %91

82:                                               ; preds = %75
  %83 = load ptr, ptr %7, align 8, !tbaa !36
  %84 = load ptr, ptr %5, align 8, !tbaa !80
  %85 = getelementptr inbounds nuw %struct.AVPacket, ptr %84, i32 0, i32 3
  %86 = load ptr, ptr %85, align 8, !tbaa !84
  %87 = load ptr, ptr %9, align 8, !tbaa !82
  %88 = getelementptr inbounds nuw %struct.vmd_frame, ptr %87, i32 0, i32 1
  %89 = load i32, ptr %88, align 4, !tbaa !74
  %90 = call i32 @avio_read(ptr noundef %83, ptr noundef %86, i32 noundef %89)
  store i32 %90, ptr %8, align 4, !tbaa !15
  br label %101

91:                                               ; preds = %75, %60
  %92 = load ptr, ptr %7, align 8, !tbaa !36
  %93 = load ptr, ptr %5, align 8, !tbaa !80
  %94 = getelementptr inbounds nuw %struct.AVPacket, ptr %93, i32 0, i32 3
  %95 = load ptr, ptr %94, align 8, !tbaa !84
  %96 = getelementptr inbounds i8, ptr %95, i64 16
  %97 = load ptr, ptr %9, align 8, !tbaa !82
  %98 = getelementptr inbounds nuw %struct.vmd_frame, ptr %97, i32 0, i32 1
  %99 = load i32, ptr %98, align 4, !tbaa !74
  %100 = call i32 @avio_read(ptr noundef %92, ptr noundef %96, i32 noundef %99)
  store i32 %100, ptr %8, align 4, !tbaa !15
  br label %101

101:                                              ; preds = %91, %82
  %102 = load i32, ptr %8, align 4, !tbaa !15
  %103 = load ptr, ptr %9, align 8, !tbaa !82
  %104 = getelementptr inbounds nuw %struct.vmd_frame, ptr %103, i32 0, i32 1
  %105 = load i32, ptr %104, align 4, !tbaa !74
  %106 = icmp ne i32 %102, %105
  br i1 %106, label %107, label %108

107:                                              ; preds = %101
  store i32 -5, ptr %8, align 4, !tbaa !15
  br label %108

108:                                              ; preds = %107, %101
  %109 = load ptr, ptr %9, align 8, !tbaa !82
  %110 = getelementptr inbounds nuw %struct.vmd_frame, ptr %109, i32 0, i32 0
  %111 = load i32, ptr %110, align 8, !tbaa !73
  %112 = load ptr, ptr %5, align 8, !tbaa !80
  %113 = getelementptr inbounds nuw %struct.AVPacket, ptr %112, i32 0, i32 5
  store i32 %111, ptr %113, align 4, !tbaa !85
  %114 = load ptr, ptr %9, align 8, !tbaa !82
  %115 = getelementptr inbounds nuw %struct.vmd_frame, ptr %114, i32 0, i32 3
  %116 = load i64, ptr %115, align 8, !tbaa !75
  %117 = load ptr, ptr %5, align 8, !tbaa !80
  %118 = getelementptr inbounds nuw %struct.AVPacket, ptr %117, i32 0, i32 1
  store i64 %116, ptr %118, align 8, !tbaa !86
  %119 = load ptr, ptr %4, align 8, !tbaa !16
  %120 = load ptr, ptr %9, align 8, !tbaa !82
  %121 = getelementptr inbounds nuw %struct.vmd_frame, ptr %120, i32 0, i32 4
  %122 = getelementptr inbounds [16 x i8], ptr %121, i64 0, i64 0
  %123 = load i8, ptr %122, align 8, !tbaa !14
  %124 = zext i8 %123 to i32
  %125 = icmp eq i32 %124, 2
  %126 = select i1 %125, ptr @.str.5, ptr @.str.6
  %127 = load ptr, ptr %9, align 8, !tbaa !82
  %128 = getelementptr inbounds nuw %struct.vmd_frame, ptr %127, i32 0, i32 1
  %129 = load i32, ptr %128, align 4, !tbaa !74
  %130 = add i32 %129, 16
  %131 = load ptr, ptr %5, align 8, !tbaa !80
  %132 = getelementptr inbounds nuw %struct.AVPacket, ptr %131, i32 0, i32 1
  %133 = load i64, ptr %132, align 8, !tbaa !86
  call void (ptr, i32, ptr, ...) @av_log(ptr noundef %119, i32 noundef 48, ptr noundef @.str.4, ptr noundef %126, i32 noundef %130, i64 noundef %133)
  %134 = load ptr, ptr %6, align 8, !tbaa !33
  %135 = getelementptr inbounds nuw %struct.VmdDemuxContext, ptr %134, i32 0, i32 5
  %136 = load i32, ptr %135, align 8, !tbaa !79
  %137 = add i32 %136, 1
  store i32 %137, ptr %135, align 8, !tbaa !79
  %138 = load i32, ptr %8, align 4, !tbaa !15
  store i32 %138, ptr %3, align 4
  store i32 1, ptr %10, align 4
  br label %139

139:                                              ; preds = %108, %58, %48, %24
  call void @llvm.lifetime.end.p0(i64 8, ptr %9) #5
  call void @llvm.lifetime.end.p0(i64 4, ptr %8) #5
  call void @llvm.lifetime.end.p0(i64 8, ptr %7) #5
  call void @llvm.lifetime.end.p0(i64 8, ptr %6) #5
  %140 = load i32, ptr %3, align 4
  ret i32 %140
}