; Function Attrs: nounwind uwtable
define internal i32 @vmd_read_packet(ptr noundef %0, ptr noundef %1) #1 {
  %3 = getelementptr inbounds nuw i8, ptr %0, i64 24
  %4 = load ptr, ptr %3, align 8, !tbaa !13
  %5 = getelementptr inbounds nuw i8, ptr %0, i64 32
  %6 = load ptr, ptr %5, align 8, !tbaa !28
  %7 = getelementptr inbounds nuw i8, ptr %4, i64 24
  %8 = load i32, ptr %7, align 8, !tbaa !70
  %9 = getelementptr inbounds nuw i8, ptr %4, i64 8
  %10 = load i32, ptr %9, align 8, !tbaa !57
  %.not = icmp ult i32 %8, %10
  br i1 %.not, label %11, label %58

11:                                               ; preds = %2
  %12 = getelementptr inbounds nuw i8, ptr %4, i64 16
  %13 = load ptr, ptr %12, align 8, !tbaa !59
  %14 = zext i32 %8 to i64
  %15 = getelementptr inbounds nuw %struct.vmd_frame, ptr %13, i64 %14
  %16 = getelementptr inbounds nuw i8, ptr %15, i64 8
  %17 = load i64, ptr %16, align 8, !tbaa !61
  %18 = tail call i64 @avio_seek(ptr noundef %6, i64 noundef %17, i32 noundef 0) #5
  %19 = getelementptr inbounds nuw i8, ptr %15, i64 4
  %20 = load i32, ptr %19, align 4, !tbaa !64
  %21 = tail call i32 @ffio_limit(ptr noundef %6, i32 noundef %20) #5
  %22 = load i32, ptr %19, align 4, !tbaa !64
  %.not43 = icmp eq i32 %21, %22
  br i1 %.not43, label %23, label %58

23:                                               ; preds = %11
  %24 = add i32 %21, 16
  %25 = tail call i32 @av_new_packet(ptr noundef %1, i32 noundef %24) #5
  %26 = icmp slt i32 %25, 0
  br i1 %26, label %58, label %27

27:                                               ; preds = %23
  %28 = tail call i64 @avio_seek(ptr noundef %6, i64 noundef 0, i32 noundef 1) #5
  %29 = getelementptr inbounds nuw i8, ptr %1, i64 72
  store i64 %28, ptr %29, align 8, !tbaa !71
  %30 = getelementptr inbounds nuw i8, ptr %1, i64 24
  %31 = load ptr, ptr %30, align 8, !tbaa !72
  %32 = getelementptr inbounds nuw i8, ptr %15, i64 24
  tail call void @llvm.memcpy.p0.p0.i64(ptr noundef nonnull align 1 dereferenceable(16) %31, ptr noundef nonnull align 8 dereferenceable(16) %32, i64 16, i1 false)
  %33 = getelementptr inbounds nuw i8, ptr %4, i64 28
  %34 = load i32, ptr %33, align 4, !tbaa !29
  %.not44 = icmp eq i32 %34, 0
  br i1 %.not44, label %40, label %35

35:                                               ; preds = %27
  %36 = load i8, ptr %32, align 8, !tbaa !12
  %37 = icmp eq i8 %36, 2
  br i1 %37, label %38, label %40

38:                                               ; preds = %35
  %39 = load ptr, ptr %30, align 8, !tbaa !72
  br label %43

40:                                               ; preds = %35, %27
  %41 = load ptr, ptr %30, align 8, !tbaa !72
  %42 = getelementptr inbounds nuw i8, ptr %41, i64 16
  br label %43

43:                                               ; preds = %40, %38
  %.sink = phi ptr [ %42, %40 ], [ %39, %38 ]
  %44 = load i32, ptr %19, align 4, !tbaa !64
  %45 = tail call i32 @avio_read(ptr noundef %6, ptr noundef %.sink, i32 noundef %44) #5
  %46 = load i32, ptr %19, align 4, !tbaa !64
  %.not45 = icmp eq i32 %45, %46
  %spec.store.select = select i1 %.not45, i32 %45, i32 -5
  %47 = load i32, ptr %15, align 8, !tbaa !63
  %48 = getelementptr inbounds nuw i8, ptr %1, i64 36
  store i32 %47, ptr %48, align 4, !tbaa !73
  %49 = getelementptr inbounds nuw i8, ptr %15, i64 16
  %50 = load i64, ptr %49, align 8, !tbaa !65
  %51 = getelementptr inbounds nuw i8, ptr %1, i64 8
  store i64 %50, ptr %51, align 8, !tbaa !74
  %52 = load i8, ptr %32, align 8, !tbaa !12
  %53 = icmp eq i8 %52, 2
  %54 = select i1 %53, ptr @.str.5, ptr @.str.6
  %55 = add i32 %46, 16
  tail call void (ptr, i32, ptr, ...) @av_log(ptr noundef nonnull %0, i32 noundef 48, ptr noundef nonnull @.str.4, ptr noundef nonnull %54, i32 noundef %55, i64 noundef %50) #5
  %56 = load i32, ptr %7, align 8, !tbaa !70
  %57 = add i32 %56, 1
  store i32 %57, ptr %7, align 8, !tbaa !70
  br label %58

58:                                               ; preds = %23, %11, %2, %43
  %.0 = phi i32 [ %spec.store.select, %43 ], [ -541478725, %2 ], [ -5, %11 ], [ %25, %23 ]
  ret i32 %.0
}